target datalayout = "e-m:e-p270:32:32-p271:32:32-p272:64:64-i64:64-i128:128-f80:128-n8:16:32:64-S128"
target triple = "x86_64-pc-linux-gnu"

; Function Attrs: norecurse nounwind uwtable
define internal void @_ZN5faiss21fvec_argsort_parallelEmPKfPm.omp_outlined(ptr noalias noundef %0, ptr noalias noundef %1, ptr noundef nonnull align 8 dereferenceable(8) %2, ptr noundef nonnull align 8 dereferenceable(8) %3) #6 {
  %5 = alloca ptr, align 8
  %6 = alloca ptr, align 8
  %7 = alloca ptr, align 8
  %8 = alloca ptr, align 8
  %9 = alloca i64, align 8
  store ptr %0, ptr %5, align 8
  store ptr %1, ptr %6, align 8
  store ptr %2, ptr %7, align 8
  store ptr %3, ptr %8, align 8
  %10 = load ptr, ptr %7, align 8
  %11 = load ptr, ptr %8, align 8
  store i64 0, ptr %9, align 8
  br label %12

12:                                               ; preds = %21, %4
  %13 = load i64, ptr %9, align 8
  %14 = load i64, ptr %10, align 8
  %15 = icmp ult i64 %13, %14
  br i1 %15, label %16, label %24

16:                                               ; preds = %12
  %17 = load i64, ptr %9, align 8
  %18 = load ptr, ptr %11, align 8
  %19 = load i64, ptr %9, align 8
  %20 = getelementptr inbounds i64, ptr %18, i64 %19
  store i64 %17, ptr %20, align 8
  br label %21

21:                                               ; preds = %16
  %22 = load i64, ptr %9, align 8
  %23 = add i64 %22, 1
  store i64 %23, ptr %9, align 8
  br label %12, !llvm.loop !22

24:                                               ; preds = %12
  ret void
}