; Function Attrs: nofree norecurse nosync nounwind memory(write, argmem: readwrite, inaccessiblemem: none) uwtable
define internal void @_ZN5faiss21fvec_argsort_parallelEmPKfPm.omp_outlined(ptr noalias nocapture readnone %0, ptr noalias nocapture readnone %1, ptr nocapture noundef nonnull readonly align 8 dereferenceable(8) %2, ptr nocapture noundef nonnull readonly align 8 dereferenceable(8) %3) #6 {
  %5 = load i64, ptr %2, align 8
  %.not = icmp eq i64 %5, 0
  br i1 %.not, label %._crit_edge, label %.lr.ph

.lr.ph:                                           ; preds = %4, %.lr.ph
  %.05 = phi i64 [ %8, %.lr.ph ], [ 0, %4 ]
  %6 = load ptr, ptr %3, align 8
  %7 = getelementptr inbounds i64, ptr %6, i64 %.05
  store i64 %.05, ptr %7, align 8
  %8 = add nuw i64 %.05, 1
  %9 = load i64, ptr %2, align 8
  %10 = icmp ult i64 %8, %9
  br i1 %10, label %.lr.ph, label %._crit_edge, !llvm.loop !23

._crit_edge:                                      ; preds = %.lr.ph, %4
  ret void
}